ccopy_reg
_reconstructor
p1
(csklearn.linear_model.logistic
LogisticRegression
p2
c__builtin__
object
p3
NtRp4
(dp5
S'warm_start'
p6
I00
sS'C'
F1
sS'max_iter'
p7
I100
sS'verbose'
p8
I0
sS'intercept_scaling'
p9
I1
sS'dual'
p10
I00
sS'fit_intercept'
p11
I01
sS'classes_'
p12
cnumpy.core.multiarray
_reconstruct
p13
(cnumpy
ndarray
p14
(I0
tS'b'
tRp15
(I1
(L2L
tcnumpy
dtype
p16
(S'f8'
I0
I1
tRp17
(I3
S'<'
NNNI-1
I-1
I0
tbI00
S'\x00\x00\x00\x00\x00\x00\x00\x00\x00\x00\x00\x00\x00\x00\xf0?'
tbsS'solver'
p18
S'liblinear'
p19
sS'n_iter_'
p20
g13
(g14
(I0
tS'b'
tRp21
(I1
(L1L
tg16
(S'i4'
I0
I1
tRp22
(I3
S'<'
NNNI-1
I-1
I0
tbI00
S'\x05\x00\x00\x00'
tbsS'penalty'
p23
S'l2'
p24
sS'multi_class'
p25
S'ovr'
p26
sS'random_state'
p27
NsS'tol'
p28
F0.0001
sS'n_jobs'
p29
I1
sS'coef_'
p30
g13
(g14
(I0
tS'b'
tRp31
(I1
(L1L
L5L
tg17
I01
S"\xd7\xd3%B)\xf1\xe4?\x1d7\xef*\x9bp\xe3\xbf\x96\x9e\xef[&\x10\xfb?Es\xd7'q\xd6\xee?\xa7P\x17\xf2\x15\xe9y?"
tbsS'intercept_'
p32
g13
(g14
(I0
tS'b'
tRp33
(I1
(L1L
tg17
I00
S'r\xa6-\x97G\xb6\x00\xc0'
tbsS'class_weight'
p34
Nsb.